target datalayout = "e-m:e-p270:32:32-p271:32:32-p272:64:64-i64:64-i128:128-f80:128-n8:16:32:64-S128"
target triple = "x86_64-pc-linux-gnu"

%"struct.faiss::IndexFastScan" = type { %"struct.faiss::Index.base", i32, i32, i32, i32, i64, i64, i64, i64, i64, i64, %"struct.faiss::AlignedTable", ptr }
%"struct.faiss::Index.base" = type <{ ptr, i32, [4 x i8], i64, i8, i8, [2 x i8], i32, float }>
%"struct.faiss::AlignedTable" = type { %"struct.faiss::AlignedTableTightAlloc", i64 }
%"struct.faiss::AlignedTableTightAlloc" = type { ptr, i64 }

; Function Attrs: mustprogress uwtable
define noundef ptr @_ZNK5faiss13IndexFastScan14get_CodePackerEv(ptr noundef nonnull align 8 dereferenceable(136) %0) #2 align 2 personality ptr @__gxx_personality_v0 {
  %2 = alloca ptr, align 8
  %3 = alloca ptr, align 8
  %4 = alloca i32, align 4
  store ptr %0, ptr %2, align 8
  %5 = load ptr, ptr %2, align 8
  %6 = call noalias noundef nonnull ptr @_Znwm(i64 noundef 40) #18
  %7 = getelementptr inbounds %"struct.faiss::IndexFastScan", ptr %5, i32 0, i32 5
  %8 = load i64, ptr %7, align 8
  %9 = getelementptr inbounds %"struct.faiss::IndexFastScan", ptr %5, i32 0, i32 3
  %10 = load i32, ptr %9, align 4
  %11 = sext i32 %10 to i64
  invoke void @_ZN5faiss13CodePackerPQ4C1Emm(ptr noundef nonnull align 8 dereferenceable(40) %6, i64 noundef %8, i64 noundef %11)
          to label %12 unwind label %13

12:                                               ; preds = %1
  ret ptr %6

13:                                               ; preds = %1
  %14 = landingpad { ptr, i32 }
          cleanup
  %15 = extractvalue { ptr, i32 } %14, 0
  store ptr %15, ptr %3, align 8
  %16 = extractvalue { ptr, i32 } %14, 1
  store i32 %16, ptr %4, align 4
  call void @_ZdlPv(ptr noundef %6) #19
  br label %17

17:                                               ; preds = %13
  %18 = load ptr, ptr %3, align 8
  %19 = load i32, ptr %4, align 4
  %20 = insertvalue { ptr, i32 } poison, ptr %18, 0
  %21 = insertvalue { ptr, i32 } %20, i32 %19, 1
  resume { ptr, i32 } %21
}