; Function Attrs: mustprogress uwtable
define noundef nonnull ptr @_ZNK5faiss13IndexFastScan14get_CodePackerEv(ptr nocapture noundef nonnull readonly align 8 dereferenceable(136) %0) local_unnamed_addr #2 align 2 personality ptr @__gxx_personality_v0 {
  %2 = tail call noalias noundef nonnull dereferenceable(40) ptr @_Znwm(i64 noundef 40) #26
  %3 = getelementptr inbounds i8, ptr %0, i64 56
  %4 = load i64, ptr %3, align 8
  %5 = getelementptr inbounds i8, ptr %0, i64 44
  %6 = load i32, ptr %5, align 4
  %7 = sext i32 %6 to i64
  invoke void @_ZN5faiss13CodePackerPQ4C1Emm(ptr noundef nonnull align 8 dereferenceable(40) %2, i64 noundef %4, i64 noundef %7)
          to label %8 unwind label %9

8:                                                ; preds = %1
  ret ptr %2

9:                                                ; preds = %1
  %10 = landingpad { ptr, i32 }
          cleanup
  tail call void @_ZdlPv(ptr noundef nonnull %2) #27
  resume { ptr, i32 } %10
}